; Function Attrs: mustprogress uwtable
define hidden void @_ZN6Assimp11X3DExporter19NodeHelper_OpenNodeERKNSt7__cxx1112basic_stringIcSt11char_traitsIcESaIcEEEmb(ptr noundef nonnull align 8 dereferenceable(144) %0, ptr noundef nonnull align 8 dereferenceable(32) %1, i64 noundef %2, i1 noundef zeroext %3) local_unnamed_addr #0 align 2 personality ptr @__gxx_personality_v0 {
  %5 = alloca %"class.std::__cxx11::list.7", align 8
  call void @llvm.lifetime.start.p0(i64 24, ptr nonnull %5) #27
  %6 = getelementptr inbounds nuw i8, ptr %5, i64 8
  store ptr %5, ptr %6, align 8
  store ptr %5, ptr %5, align 8
  %7 = getelementptr inbounds nuw i8, ptr %5, i64 16
  store i64 0, ptr %7, align 8
  invoke void @_ZN6Assimp11X3DExporter19NodeHelper_OpenNodeERKNSt7__cxx1112basic_stringIcSt11char_traitsIcESaIcEEEmbRKNS1_4listINS0_10SAttributeESaISA_EEE(ptr noundef nonnull align 8 dereferenceable(144) %0, ptr noundef nonnull align 8 dereferenceable(32) %1, i64 noundef %2, i1 noundef zeroext %3, ptr noundef nonnull align 8 dereferenceable(24) %5)
          to label %8 unwind label %29

8:                                                ; preds = %4
  %9 = load ptr, ptr %5, align 8
  %.not8.i.i = icmp eq ptr %9, %5
  br i1 %.not8.i.i, label %_ZNSt7__cxx1110_List_baseIN6Assimp11X3DExporter10SAttributeESaIS3_EED2Ev.exit, label %.lr.ph.i.i

.lr.ph.i.i:                                       ; preds = %8, %_ZNSt16allocator_traitsISaISt10_List_nodeIN6Assimp11X3DExporter10SAttributeEEEE7destroyIS3_EEvRS5_PT_.exit.i.i
  %.09.i.i = phi ptr [ %10, %_ZNSt16allocator_traitsISaISt10_List_nodeIN6Assimp11X3DExporter10SAttributeEEEE7destroyIS3_EEvRS5_PT_.exit.i.i ], [ %9, %8 ]
  %10 = load ptr, ptr %.09.i.i, align 8
  %11 = getelementptr inbounds nuw i8, ptr %.09.i.i, i64 16
  %12 = getelementptr inbounds nuw i8, ptr %.09.i.i, i64 48
  %13 = load ptr, ptr %12, align 8
  %14 = getelementptr inbounds nuw i8, ptr %.09.i.i, i64 64
  %15 = icmp eq ptr %13, %14
  br i1 %15, label %_ZNKSt7__cxx1112basic_stringIcSt11char_traitsIcESaIcEE11_M_is_localEv.exit.thread.i.i.i.i.i.i.i, label %_ZNKSt7__cxx1112basic_stringIcSt11char_traitsIcESaIcEE11_M_is_localEv.exit.i.i.i.i.i.i.i

_ZNKSt7__cxx1112basic_stringIcSt11char_traitsIcESaIcEE11_M_is_localEv.exit.thread.i.i.i.i.i.i.i: ; preds = %.lr.ph.i.i
  %16 = getelementptr inbounds nuw i8, ptr %.09.i.i, i64 56
  %17 = load i64, ptr %16, align 8
  %18 = icmp ult i64 %17, 16
  call void @llvm.assume(i1 %18)
  br label %_ZNSt7__cxx1112basic_stringIcSt11char_traitsIcESaIcEED2Ev.exit.i.i.i.i.i

_ZNKSt7__cxx1112basic_stringIcSt11char_traitsIcESaIcEE11_M_is_localEv.exit.i.i.i.i.i.i.i: ; preds = %.lr.ph.i.i
  %19 = load i64, ptr %14, align 8
  %20 = add i64 %19, 1
  call void @_ZdlPvm(ptr noundef %13, i64 noundef %20) #28
  br label %_ZNSt7__cxx1112basic_stringIcSt11char_traitsIcESaIcEED2Ev.exit.i.i.i.i.i

_ZNSt7__cxx1112basic_stringIcSt11char_traitsIcESaIcEED2Ev.exit.i.i.i.i.i: ; preds = %_ZNKSt7__cxx1112basic_stringIcSt11char_traitsIcESaIcEE11_M_is_localEv.exit.i.i.i.i.i.i.i, %_ZNKSt7__cxx1112basic_stringIcSt11char_traitsIcESaIcEE11_M_is_localEv.exit.thread.i.i.i.i.i.i.i
  %21 = load ptr, ptr %11, align 8
  %22 = getelementptr inbounds nuw i8, ptr %.09.i.i, i64 32
  %23 = icmp eq ptr %21, %22
  br i1 %23, label %_ZNKSt7__cxx1112basic_stringIcSt11char_traitsIcESaIcEE11_M_is_localEv.exit.thread.i.i2.i.i.i.i.i, label %_ZNKSt7__cxx1112basic_stringIcSt11char_traitsIcESaIcEE11_M_is_localEv.exit.i.i1.i.i.i.i.i

_ZNKSt7__cxx1112basic_stringIcSt11char_traitsIcESaIcEE11_M_is_localEv.exit.thread.i.i2.i.i.i.i.i: ; preds = %_ZNSt7__cxx1112basic_stringIcSt11char_traitsIcESaIcEED2Ev.exit.i.i.i.i.i
  %24 = getelementptr inbounds nuw i8, ptr %.09.i.i, i64 24
  %25 = load i64, ptr %24, align 8
  %26 = icmp ult i64 %25, 16
  call void @llvm.assume(i1 %26)
  br label %_ZNSt16allocator_traitsISaISt10_List_nodeIN6Assimp11X3DExporter10SAttributeEEEE7destroyIS3_EEvRS5_PT_.exit.i.i

_ZNKSt7__cxx1112basic_stringIcSt11char_traitsIcESaIcEE11_M_is_localEv.exit.i.i1.i.i.i.i.i: ; preds = %_ZNSt7__cxx1112basic_stringIcSt11char_traitsIcESaIcEED2Ev.exit.i.i.i.i.i
  %27 = load i64, ptr %22, align 8
  %28 = add i64 %27, 1
  call void @_ZdlPvm(ptr noundef %21, i64 noundef %28) #28
  br label %_ZNSt16allocator_traitsISaISt10_List_nodeIN6Assimp11X3DExporter10SAttributeEEEE7destroyIS3_EEvRS5_PT_.exit.i.i

_ZNSt16allocator_traitsISaISt10_List_nodeIN6Assimp11X3DExporter10SAttributeEEEE7destroyIS3_EEvRS5_PT_.exit.i.i: ; preds = %_ZNKSt7__cxx1112basic_stringIcSt11char_traitsIcESaIcEE11_M_is_localEv.exit.i.i1.i.i.i.i.i, %_ZNKSt7__cxx1112basic_stringIcSt11char_traitsIcESaIcEE11_M_is_localEv.exit.thread.i.i2.i.i.i.i.i
  call void @_ZdlPvm(ptr noundef nonnull %.09.i.i, i64 noundef 80) #28
  %.not.i.i = icmp eq ptr %10, %5
  br i1 %.not.i.i, label %_ZNSt7__cxx1110_List_baseIN6Assimp11X3DExporter10SAttributeESaIS3_EED2Ev.exit, label %.lr.ph.i.i, !llvm.loop !95

_ZNSt7__cxx1110_List_baseIN6Assimp11X3DExporter10SAttributeESaIS3_EED2Ev.exit: ; preds = %_ZNSt16allocator_traitsISaISt10_List_nodeIN6Assimp11X3DExporter10SAttributeEEEE7destroyIS3_EEvRS5_PT_.exit.i.i, %8
  call void @llvm.lifetime.end.p0(i64 24, ptr nonnull %5) #27
  ret void

29:                                               ; preds = %4
  %30 = landingpad { ptr, i32 }
          cleanup
  call void @_ZNSt7__cxx1110_List_baseIN6Assimp11X3DExporter10SAttributeESaIS3_EED2Ev(ptr noundef nonnull align 8 dereferenceable(24) %5) #27
  call void @llvm.lifetime.end.p0(i64 24, ptr nonnull %5) #27
  resume { ptr, i32 } %30
}